target datalayout = "e-m:e-p270:32:32-p271:32:32-p272:64:64-i64:64-i128:128-f80:128-n8:16:32:64-S128"
target triple = "x86_64-pc-linux-gnu"

%"class.toku::wfg" = type { %"class.toku::omt" }
%"class.toku::omt" = type { i8, i32, %union.anon }
%union.anon = type { %"struct.toku::omt<toku::wfg::node *>::omt_array" }
%"struct.toku::omt<toku::wfg::node *>::omt_array" = type { i32, i32, ptr }
%"struct.toku::omt<toku::wfg::node *>::omt_tree" = type { %"class.toku::omt_internal::subtree_templated", i32, ptr }
%"class.toku::omt_internal::subtree_templated" = type { i32 }
%"struct.toku::wfg::node" = type <{ i64, %"class.toku::txnid_set", i8, [7 x i8] }>
%"class.toku::txnid_set" = type { %"class.toku::omt.0" }
%"class.toku::omt.0" = type { i8, i32, %union.anon.1 }
%union.anon.1 = type { %"struct.toku::omt<unsigned long>::omt_array" }
%"struct.toku::omt<unsigned long>::omt_array" = type { i32, i32, ptr }

; Function Attrs: mustprogress nounwind uwtable
define linkonce_odr void @_ZN4toku3omtIPNS_3wfg4nodeES3_Lb0EE7copyoutEPS3_PKS3_(ptr noundef nonnull %0, ptr noundef nonnull %1) #3 comdat align 2 {
  %3 = alloca ptr, align 8
  %4 = alloca ptr, align 8
  store ptr %0, ptr %3, align 8, !tbaa !23
  store ptr %1, ptr %4, align 8, !tbaa !23
  %5 = load ptr, ptr %4, align 8, !tbaa !23
  %6 = load ptr, ptr %5, align 8, !tbaa !13
  %7 = load ptr, ptr %3, align 8, !tbaa !23
  store ptr %6, ptr %7, align 8, !tbaa !13
  ret void
}

; Function Attrs: mustprogress nounwind uwtable
define noundef i32 @_ZN4toku3wfg13find_by_txnidERKPNS0_4nodeERKm(ptr noundef nonnull align 8 dereferenceable(8) %0, ptr noundef nonnull align 8 dereferenceable(8) %1) #3 align 2 {
  %3 = alloca i32, align 4
  %4 = alloca ptr, align 8
  %5 = alloca ptr, align 8
  %6 = alloca i64, align 8
  %7 = alloca i32, align 4
  store ptr %0, ptr %4, align 8, !tbaa !23
  store ptr %1, ptr %5, align 8, !tbaa !47
  call void @llvm.lifetime.start.p0(i64 8, ptr %6) #10
  %8 = load ptr, ptr %4, align 8, !tbaa !23
  %9 = load ptr, ptr %8, align 8, !tbaa !13
  %10 = getelementptr inbounds nuw %"struct.toku::wfg::node", ptr %9, i32 0, i32 0
  %11 = load i64, ptr %10, align 8, !tbaa !29
  store i64 %11, ptr %6, align 8, !tbaa !27
  %12 = load i64, ptr %6, align 8, !tbaa !27
  %13 = load ptr, ptr %5, align 8, !tbaa !47
  %14 = load i64, ptr %13, align 8, !tbaa !27
  %15 = icmp ult i64 %12, %14
  br i1 %15, label %16, label %17

16:                                               ; preds = %2
  store i32 -1, ptr %3, align 4
  store i32 1, ptr %7, align 4
  br label %24

17:                                               ; preds = %2
  %18 = load i64, ptr %6, align 8, !tbaa !27
  %19 = load ptr, ptr %5, align 8, !tbaa !47
  %20 = load i64, ptr %19, align 8, !tbaa !27
  %21 = icmp eq i64 %18, %20
  br i1 %21, label %22, label %23

22:                                               ; preds = %17
  store i32 0, ptr %3, align 4
  store i32 1, ptr %7, align 4
  br label %24

23:                                               ; preds = %17
  store i32 1, ptr %3, align 4
  store i32 1, ptr %7, align 4
  br label %24

24:                                               ; preds = %23, %22, %16
  call void @llvm.lifetime.end.p0(i64 8, ptr %6) #10
  %25 = load i32, ptr %3, align 4
  ret i32 %25
}

; Function Attrs: mustprogress nounwind uwtable
define linkonce_odr noundef i32 @_ZNK4toku3omtIPNS_3wfg4nodeES3_Lb0EE24find_internal_zero_arrayImTnPFiRKS3_RKT_EXadL_ZNS1_13find_by_txnidES7_RKmEEEEiSA_PS3_Pj(ptr noundef nonnull align 8 dereferenceable(24) %0, ptr noundef nonnull align 8 dereferenceable(8) %1, ptr noundef %2, ptr noundef %3) #3 comdat align 2 {
  %5 = alloca i32, align 4
  %6 = alloca ptr, align 8
  %7 = alloca ptr, align 8
  %8 = alloca ptr, align 8
  %9 = alloca ptr, align 8
  %10 = alloca i32, align 4
  %11 = alloca i32, align 4
  %12 = alloca i32, align 4
  %13 = alloca i32, align 4
  %14 = alloca i32, align 4
  %15 = alloca i32, align 4
  %16 = alloca i32, align 4
  store ptr %0, ptr %6, align 8, !tbaa !9
  store ptr %1, ptr %7, align 8, !tbaa !47
  store ptr %2, ptr %8, align 8, !tbaa !23
  store ptr %3, ptr %9, align 8, !tbaa !49
  %17 = load ptr, ptr %6, align 8
  call void @llvm.lifetime.start.p0(i64 4, ptr %10) #10
  %18 = getelementptr inbounds nuw %"class.toku::omt", ptr %17, i32 0, i32 2
  %19 = getelementptr inbounds nuw %"struct.toku::omt<toku::wfg::node *>::omt_array", ptr %18, i32 0, i32 0
  %20 = load i32, ptr %19, align 8, !tbaa !22
  store i32 %20, ptr %10, align 4, !tbaa !11
  call void @llvm.lifetime.start.p0(i64 4, ptr %11) #10
  %21 = getelementptr inbounds nuw %"class.toku::omt", ptr %17, i32 0, i32 2
  %22 = getelementptr inbounds nuw %"struct.toku::omt<toku::wfg::node *>::omt_array", ptr %21, i32 0, i32 0
  %23 = load i32, ptr %22, align 8, !tbaa !22
  %24 = getelementptr inbounds nuw %"class.toku::omt", ptr %17, i32 0, i32 2
  %25 = getelementptr inbounds nuw %"struct.toku::omt<toku::wfg::node *>::omt_array", ptr %24, i32 0, i32 1
  %26 = load i32, ptr %25, align 4, !tbaa !22
  %27 = add i32 %23, %26
  store i32 %27, ptr %11, align 4, !tbaa !11
  call void @llvm.lifetime.start.p0(i64 4, ptr %12) #10
  store i32 -1, ptr %12, align 4, !tbaa !11
  call void @llvm.lifetime.start.p0(i64 4, ptr %13) #10
  store i32 -1, ptr %13, align 4, !tbaa !11
  br label %28

28:                                               ; preds = %60, %4
  %29 = load i32, ptr %10, align 4, !tbaa !11
  %30 = load i32, ptr %11, align 4, !tbaa !11
  %31 = icmp ne i32 %29, %30
  br i1 %31, label %32, label %61

32:                                               ; preds = %28
  call void @llvm.lifetime.start.p0(i64 4, ptr %14) #10
  %33 = load i32, ptr %10, align 4, !tbaa !11
  %34 = load i32, ptr %11, align 4, !tbaa !11
  %35 = add i32 %33, %34
  %36 = udiv i32 %35, 2
  store i32 %36, ptr %14, align 4, !tbaa !11
  call void @llvm.lifetime.start.p0(i64 4, ptr %15) #10
  %37 = getelementptr inbounds nuw %"class.toku::omt", ptr %17, i32 0, i32 2
  %38 = getelementptr inbounds nuw %"struct.toku::omt<toku::wfg::node *>::omt_array", ptr %37, i32 0, i32 2
  %39 = load ptr, ptr %38, align 8, !tbaa !22
  %40 = load i32, ptr %14, align 4, !tbaa !11
  %41 = zext i32 %40 to i64
  %42 = getelementptr inbounds nuw ptr, ptr %39, i64 %41
  %43 = load ptr, ptr %7, align 8, !tbaa !47
  %44 = call noundef i32 @_ZN4toku3wfg13find_by_txnidERKPNS0_4nodeERKm(ptr noundef nonnull align 8 dereferenceable(8) %42, ptr noundef nonnull align 8 dereferenceable(8) %43)
  store i32 %44, ptr %15, align 4, !tbaa !11
  %45 = load i32, ptr %15, align 4, !tbaa !11
  %46 = icmp slt i32 %45, 0
  br i1 %46, label %47, label %50

47:                                               ; preds = %32
  %48 = load i32, ptr %14, align 4, !tbaa !11
  %49 = add i32 %48, 1
  store i32 %49, ptr %10, align 4, !tbaa !11
  br label %60

50:                                               ; preds = %32
  %51 = load i32, ptr %15, align 4, !tbaa !11
  %52 = icmp sgt i32 %51, 0
  br i1 %52, label %53, label %56

53:                                               ; preds = %50
  %54 = load i32, ptr %14, align 4, !tbaa !11
  store i32 %54, ptr %12, align 4, !tbaa !11
  %55 = load i32, ptr %14, align 4, !tbaa !11
  store i32 %55, ptr %11, align 4, !tbaa !11
  br label %59

56:                                               ; preds = %50
  %57 = load i32, ptr %14, align 4, !tbaa !11
  store i32 %57, ptr %13, align 4, !tbaa !11
  %58 = load i32, ptr %14, align 4, !tbaa !11
  store i32 %58, ptr %11, align 4, !tbaa !11
  br label %59

59:                                               ; preds = %56, %53
  br label %60

60:                                               ; preds = %59, %47
  call void @llvm.lifetime.end.p0(i64 4, ptr %15) #10
  call void @llvm.lifetime.end.p0(i64 4, ptr %14) #10
  br label %28, !llvm.loop !60

61:                                               ; preds = %28
  %62 = load i32, ptr %13, align 4, !tbaa !11
  %63 = icmp ne i32 %62, -1
  br i1 %63, label %64, label %82

64:                                               ; preds = %61
  %65 = load ptr, ptr %8, align 8, !tbaa !23
  %66 = icmp ne ptr %65, null
  br i1 %66, label %67, label %75

67:                                               ; preds = %64
  %68 = load ptr, ptr %8, align 8, !tbaa !23
  %69 = getelementptr inbounds nuw %"class.toku::omt", ptr %17, i32 0, i32 2
  %70 = getelementptr inbounds nuw %"struct.toku::omt<toku::wfg::node *>::omt_array", ptr %69, i32 0, i32 2
  %71 = load ptr, ptr %70, align 8, !tbaa !22
  %72 = load i32, ptr %13, align 4, !tbaa !11
  %73 = zext i32 %72 to i64
  %74 = getelementptr inbounds nuw ptr, ptr %71, i64 %73
  call void @_ZN4toku3omtIPNS_3wfg4nodeES3_Lb0EE7copyoutEPS3_PKS3_(ptr noundef %68, ptr noundef %74)
  br label %75

75:                                               ; preds = %67, %64
  %76 = load i32, ptr %13, align 4, !tbaa !11
  %77 = getelementptr inbounds nuw %"class.toku::omt", ptr %17, i32 0, i32 2
  %78 = getelementptr inbounds nuw %"struct.toku::omt<toku::wfg::node *>::omt_array", ptr %77, i32 0, i32 0
  %79 = load i32, ptr %78, align 8, !tbaa !22
  %80 = sub i32 %76, %79
  %81 = load ptr, ptr %9, align 8, !tbaa !49
  store i32 %80, ptr %81, align 4, !tbaa !11
  store i32 0, ptr %5, align 4
  store i32 1, ptr %16, align 4
  br label %98

82:                                               ; preds = %61
  %83 = load i32, ptr %12, align 4, !tbaa !11
  %84 = icmp ne i32 %83, -1
  br i1 %84, label %85, label %92

85:                                               ; preds = %82
  %86 = load i32, ptr %12, align 4, !tbaa !11
  %87 = getelementptr inbounds nuw %"class.toku::omt", ptr %17, i32 0, i32 2
  %88 = getelementptr inbounds nuw %"struct.toku::omt<toku::wfg::node *>::omt_array", ptr %87, i32 0, i32 0
  %89 = load i32, ptr %88, align 8, !tbaa !22
  %90 = sub i32 %86, %89
  %91 = load ptr, ptr %9, align 8, !tbaa !49
  store i32 %90, ptr %91, align 4, !tbaa !11
  br label %97

92:                                               ; preds = %82
  %93 = getelementptr inbounds nuw %"class.toku::omt", ptr %17, i32 0, i32 2
  %94 = getelementptr inbounds nuw %"struct.toku::omt<toku::wfg::node *>::omt_array", ptr %93, i32 0, i32 1
  %95 = load i32, ptr %94, align 4, !tbaa !22
  %96 = load ptr, ptr %9, align 8, !tbaa !49
  store i32 %95, ptr %96, align 4, !tbaa !11
  br label %97

97:                                               ; preds = %92, %85
  store i32 -30989, ptr %5, align 4
  store i32 1, ptr %16, align 4
  br label %98

98:                                               ; preds = %97, %75
  call void @llvm.lifetime.end.p0(i64 4, ptr %13) #10
  call void @llvm.lifetime.end.p0(i64 4, ptr %12) #10
  call void @llvm.lifetime.end.p0(i64 4, ptr %11) #10
  call void @llvm.lifetime.end.p0(i64 4, ptr %10) #10
  %99 = load i32, ptr %5, align 4
  ret i32 %99
}

; Function Attrs: mustprogress uwtable
define linkonce_odr noundef i32 @_ZNK4toku3omtIPNS_3wfg4nodeES3_Lb0EE9find_zeroImTnPFiRKS3_RKT_EXadL_ZNS1_13find_by_txnidES7_RKmEEEEiSA_PS3_Pj(ptr noundef nonnull align 8 dereferenceable(24) %0, ptr noundef nonnull align 8 dereferenceable(8) %1, ptr noundef %2, ptr noundef %3) #0 comdat align 2 {
  %5 = alloca ptr, align 8
  %6 = alloca ptr, align 8
  %7 = alloca ptr, align 8
  %8 = alloca ptr, align 8
  %9 = alloca i32, align 4
  %10 = alloca ptr, align 8
  %11 = alloca i32, align 4
  store ptr %0, ptr %5, align 8, !tbaa !9
  store ptr %1, ptr %6, align 8, !tbaa !47
  store ptr %2, ptr %7, align 8, !tbaa !23
  store ptr %3, ptr %8, align 8, !tbaa !49
  %12 = load ptr, ptr %5, align 8
  call void @llvm.lifetime.start.p0(i64 4, ptr %9) #10
  call void @llvm.lifetime.start.p0(i64 8, ptr %10) #10
  %13 = load ptr, ptr %8, align 8, !tbaa !49
  %14 = icmp ne ptr %13, null
  br i1 %14, label %15, label %17

15:                                               ; preds = %4
  %16 = load ptr, ptr %8, align 8, !tbaa !49
  br label %18

17:                                               ; preds = %4
  br label %18

18:                                               ; preds = %17, %15
  %19 = phi ptr [ %16, %15 ], [ %9, %17 ]
  store ptr %19, ptr %10, align 8, !tbaa !49
  call void @llvm.lifetime.start.p0(i64 4, ptr %11) #10
  %20 = getelementptr inbounds nuw %"class.toku::omt", ptr %12, i32 0, i32 0
  %21 = load i8, ptr %20, align 8, !tbaa !17, !range !20, !noundef !21
  %22 = trunc i8 %21 to i1
  br i1 %22, label %23, label %28

23:                                               ; preds = %18
  %24 = load ptr, ptr %6, align 8, !tbaa !47
  %25 = load ptr, ptr %7, align 8, !tbaa !23
  %26 = load ptr, ptr %10, align 8, !tbaa !49
  %27 = call noundef i32 @_ZNK4toku3omtIPNS_3wfg4nodeES3_Lb0EE24find_internal_zero_arrayImTnPFiRKS3_RKT_EXadL_ZNS1_13find_by_txnidES7_RKmEEEEiSA_PS3_Pj(ptr noundef nonnull align 8 dereferenceable(24) %12, ptr noundef nonnull align 8 dereferenceable(8) %24, ptr noundef %25, ptr noundef %26)
  store i32 %27, ptr %11, align 4, !tbaa !11
  br label %35

28:                                               ; preds = %18
  %29 = getelementptr inbounds nuw %"class.toku::omt", ptr %12, i32 0, i32 2
  %30 = getelementptr inbounds nuw %"struct.toku::omt<toku::wfg::node *>::omt_tree", ptr %29, i32 0, i32 0
  %31 = load ptr, ptr %6, align 8, !tbaa !47
  %32 = load ptr, ptr %7, align 8, !tbaa !23
  %33 = load ptr, ptr %10, align 8, !tbaa !49
  %34 = call noundef i32 @_ZNK4toku3omtIPNS_3wfg4nodeES3_Lb0EE18find_internal_zeroImTnPFiRKS3_RKT_EXadL_ZNS1_13find_by_txnidES7_RKmEEEEiRKNS_12omt_internal17subtree_templatedILb0EEESA_PS3_Pj(ptr noundef nonnull align 8 dereferenceable(24) %12, ptr noundef nonnull align 4 dereferenceable(4) %30, ptr noundef nonnull align 8 dereferenceable(8) %31, ptr noundef %32, ptr noundef %33)
  store i32 %34, ptr %11, align 4, !tbaa !11
  br label %35

35:                                               ; preds = %28, %23
  %36 = load i32, ptr %11, align 4, !tbaa !11
  call void @llvm.lifetime.end.p0(i64 4, ptr %11) #10
  call void @llvm.lifetime.end.p0(i64 8, ptr %10) #10
  call void @llvm.lifetime.end.p0(i64 4, ptr %9) #10
  ret i32 %36
}

; Function Attrs: mustprogress uwtable
define noundef ptr @_ZN4toku3wfg9find_nodeEm(ptr noundef nonnull align 8 dereferenceable(24) %0, i64 noundef %1) #0 align 2 {
  %3 = alloca ptr, align 8
  %4 = alloca i64, align 8
  %5 = alloca ptr, align 8
  %6 = alloca i32, align 4
  store ptr %0, ptr %3, align 8, !tbaa !4
  store i64 %1, ptr %4, align 8, !tbaa !27
  %7 = load ptr, ptr %3, align 8
  call void @llvm.lifetime.start.p0(i64 8, ptr %5) #10
  store ptr null, ptr %5, align 8, !tbaa !13
  call void @llvm.lifetime.start.p0(i64 4, ptr %6) #10
  %8 = getelementptr inbounds nuw %"class.toku::wfg", ptr %7, i32 0, i32 0
  %9 = call noundef i32 @_ZNK4toku3omtIPNS_3wfg4nodeES3_Lb0EE9find_zeroImTnPFiRKS3_RKT_EXadL_ZNS1_13find_by_txnidES7_RKmEEEEiSA_PS3_Pj(ptr noundef nonnull align 8 dereferenceable(24) %8, ptr noundef nonnull align 8 dereferenceable(8) %4, ptr noundef %5, ptr noundef null)
  store i32 %9, ptr %6, align 4, !tbaa !11
  %10 = load i32, ptr %6, align 4, !tbaa !11
  %11 = icmp eq i32 %10, 0
  br i1 %11, label %13, label %12

12:                                               ; preds = %2
  br label %13

13:                                               ; preds = %12, %2
  %14 = load ptr, ptr %5, align 8, !tbaa !13
  call void @llvm.lifetime.end.p0(i64 4, ptr %6) #10
  call void @llvm.lifetime.end.p0(i64 8, ptr %5) #10
  ret ptr %14
}

; Function Attrs: mustprogress uwtable
define void @_ZN4toku3wfg11apply_edgesEmPFimmPvES1_(ptr noundef nonnull align 8 dereferenceable(24) %0, i64 noundef %1, ptr noundef %2, ptr noundef %3) #0 align 2 {
  %5 = alloca ptr, align 8
  %6 = alloca i64, align 8
  %7 = alloca ptr, align 8
  %8 = alloca ptr, align 8
  %9 = alloca ptr, align 8
  %10 = alloca i32, align 4
  %11 = alloca i32, align 4
  %12 = alloca i32, align 4
  store ptr %0, ptr %5, align 8, !tbaa !4
  store i64 %1, ptr %6, align 8, !tbaa !27
  store ptr %2, ptr %7, align 8, !tbaa !44
  store ptr %3, ptr %8, align 8, !tbaa !44
  %13 = load ptr, ptr %5, align 8
  call void @llvm.lifetime.start.p0(i64 8, ptr %9) #10
  %14 = load i64, ptr %6, align 8, !tbaa !27
  %15 = call noundef ptr @_ZN4toku3wfg9find_nodeEm(ptr noundef nonnull align 8 dereferenceable(24) %13, i64 noundef %14)
  store ptr %15, ptr %9, align 8, !tbaa !13
  %16 = load ptr, ptr %9, align 8, !tbaa !13
  %17 = icmp ne ptr %16, null
  br i1 %17, label %18, label %45

18:                                               ; preds = %4
  call void @llvm.lifetime.start.p0(i64 4, ptr %10) #10
  store i32 0, ptr %10, align 4, !tbaa !11
  call void @llvm.lifetime.start.p0(i64 4, ptr %11) #10
  %19 = load ptr, ptr %9, align 8, !tbaa !13
  %20 = getelementptr inbounds nuw %"struct.toku::wfg::node", ptr %19, i32 0, i32 1
  %21 = call noundef i32 @_ZNK4toku9txnid_set4sizeEv(ptr noundef nonnull align 8 dereferenceable(24) %20)
  store i32 %21, ptr %11, align 4, !tbaa !11
  call void @llvm.lifetime.start.p0(i64 4, ptr %12) #10
  store i32 0, ptr %12, align 4, !tbaa !11
  br label %22

22:                                               ; preds = %41, %18
  %23 = load i32, ptr %12, align 4, !tbaa !11
  %24 = load i32, ptr %11, align 4, !tbaa !11
  %25 = icmp ult i32 %23, %24
  br i1 %25, label %26, label %29

26:                                               ; preds = %22
  %27 = load i32, ptr %10, align 4, !tbaa !11
  %28 = icmp eq i32 %27, 0
  br label %29

29:                                               ; preds = %26, %22
  %30 = phi i1 [ false, %22 ], [ %28, %26 ]
  br i1 %30, label %32, label %31

31:                                               ; preds = %29
  call void @llvm.lifetime.end.p0(i64 4, ptr %12) #10
  br label %44

32:                                               ; preds = %29
  %33 = load ptr, ptr %7, align 8, !tbaa !44
  %34 = load i64, ptr %6, align 8, !tbaa !27
  %35 = load ptr, ptr %9, align 8, !tbaa !13
  %36 = getelementptr inbounds nuw %"struct.toku::wfg::node", ptr %35, i32 0, i32 1
  %37 = load i32, ptr %12, align 4, !tbaa !11
  %38 = call noundef i64 @_ZNK4toku9txnid_set3getEj(ptr noundef nonnull align 8 dereferenceable(24) %36, i32 noundef %37)
  %39 = load ptr, ptr %8, align 8, !tbaa !44
  %40 = call noundef i32 %33(i64 noundef %34, i64 noundef %38, ptr noundef %39)
  store i32 %40, ptr %10, align 4, !tbaa !11
  br label %41

41:                                               ; preds = %32
  %42 = load i32, ptr %12, align 4, !tbaa !11
  %43 = add i32 %42, 1
  store i32 %43, ptr %12, align 4, !tbaa !11
  br label %22, !llvm.loop !46

44:                                               ; preds = %31
  call void @llvm.lifetime.end.p0(i64 4, ptr %11) #10
  call void @llvm.lifetime.end.p0(i64 4, ptr %10) #10
  br label %45

45:                                               ; preds = %44, %4
  call void @llvm.lifetime.end.p0(i64 8, ptr %9) #10
  ret void
}