; Function Attrs: mustprogress uwtable
define void @_ZN4toku3wfg11apply_edgesEmPFimmPvES1_(ptr noundef nonnull align 8 dereferenceable(24) %0, i64 noundef %1, ptr noundef readonly captures(none) %2, ptr noundef %3) local_unnamed_addr #0 align 2 {
  %5 = alloca i32, align 4
  %6 = alloca i64, align 8
  %7 = alloca ptr, align 8
  call void @llvm.lifetime.start.p0(i64 8, ptr nonnull %6)
  store i64 %1, ptr %6, align 8, !tbaa !28
  call void @llvm.lifetime.start.p0(i64 8, ptr nonnull %7) #9
  store ptr null, ptr %7, align 8, !tbaa !20
  call void @llvm.lifetime.start.p0(i64 4, ptr nonnull %5) #9
  %8 = load i8, ptr %0, align 8, !tbaa !4, !range !12, !noundef !13
  %9 = trunc nuw i8 %8 to i1
  %10 = getelementptr inbounds nuw i8, ptr %0, i64 8
  br i1 %9, label %11, label %30

11:                                               ; preds = %4
  %12 = getelementptr inbounds nuw i8, ptr %0, i64 12
  %13 = load i32, ptr %12, align 4, !tbaa !11
  %.not38.i.i.i = icmp eq i32 %13, 0
  br i1 %.not38.i.i.i, label %_ZN4toku3wfg9find_nodeEm.exit.thread, label %.lr.ph.i.i.i

.lr.ph.i.i.i:                                     ; preds = %11
  %14 = load i32, ptr %10, align 8, !tbaa !11
  %15 = add i32 %14, %13
  %16 = getelementptr inbounds nuw i8, ptr %0, i64 16
  %17 = load ptr, ptr %16, align 8, !tbaa !11
  br label %18

18:                                               ; preds = %18, %.lr.ph.i.i.i
  %.02442.i.i.i = phi i32 [ %14, %.lr.ph.i.i.i ], [ %.1.i.i.i, %18 ]
  %.02541.i.i.i = phi i32 [ -1, %.lr.ph.i.i.i ], [ %.126.i.i.i, %18 ]
  %.02939.i.i.i = phi i32 [ %15, %.lr.ph.i.i.i ], [ %.130.i.i.i, %18 ]
  %19 = add i32 %.02939.i.i.i, %.02442.i.i.i
  %20 = lshr i32 %19, 1
  %21 = zext nneg i32 %20 to i64
  %22 = getelementptr inbounds nuw ptr, ptr %17, i64 %21
  %23 = load ptr, ptr %22, align 8, !tbaa !20
  %24 = load i64, ptr %23, align 8, !tbaa !23
  %25 = icmp ult i64 %24, %1
  %26 = add nuw i32 %20, 1
  %.not37.i.i.i = icmp eq i64 %24, %1
  %..025.i.i.i = select i1 %.not37.i.i.i, i32 %20, i32 %.02541.i.i.i
  %.130.i.i.i = select i1 %25, i32 %.02939.i.i.i, i32 %20
  %.126.i.i.i = select i1 %25, i32 %.02541.i.i.i, i32 %..025.i.i.i
  %.1.i.i.i = select i1 %25, i32 %26, i32 %.02442.i.i.i
  %.not.i.i.i = icmp eq i32 %.1.i.i.i, %.130.i.i.i
  br i1 %.not.i.i.i, label %._crit_edge.i.i.i, label %18, !llvm.loop !29

._crit_edge.i.i.i:                                ; preds = %18
  %.not33.i.i.i = icmp eq i32 %.126.i.i.i, -1
  br i1 %.not33.i.i.i, label %_ZN4toku3wfg9find_nodeEm.exit.thread, label %27

27:                                               ; preds = %._crit_edge.i.i.i
  %28 = zext nneg i32 %.126.i.i.i to i64
  %29 = getelementptr inbounds nuw ptr, ptr %17, i64 %28
  br label %_ZN4toku3wfg9find_nodeEm.exit

30:                                               ; preds = %4
  %31 = call noundef i32 @_ZNK4toku3omtIPNS_3wfg4nodeES3_Lb0EE18find_internal_zeroImTnPFiRKS3_RKT_EXadL_ZNS1_13find_by_txnidES7_RKmEEEEiRKNS_12omt_internal17subtree_templatedILb0EEESA_PS3_Pj(ptr noundef nonnull align 8 dereferenceable(24) %0, ptr noundef nonnull align 4 dereferenceable(4) %10, ptr noundef nonnull align 8 dereferenceable(8) %6, ptr noundef nonnull %7, ptr noundef nonnull %5)
  br label %_ZN4toku3wfg9find_nodeEm.exit

_ZN4toku3wfg9find_nodeEm.exit.thread:             ; preds = %11, %._crit_edge.i.i.i
  call void @llvm.lifetime.end.p0(i64 4, ptr nonnull %5) #9
  call void @llvm.lifetime.end.p0(i64 8, ptr nonnull %7) #9
  call void @llvm.lifetime.end.p0(i64 8, ptr nonnull %6)
  br label %.loopexit

_ZN4toku3wfg9find_nodeEm.exit:                    ; preds = %27, %30
  %.in = phi ptr [ %7, %30 ], [ %29, %27 ]
  %32 = load ptr, ptr %.in, align 8, !tbaa !20
  call void @llvm.lifetime.end.p0(i64 4, ptr nonnull %5) #9
  call void @llvm.lifetime.end.p0(i64 8, ptr nonnull %7) #9
  call void @llvm.lifetime.end.p0(i64 8, ptr nonnull %6)
  %.not = icmp eq ptr %32, null
  br i1 %.not, label %.loopexit, label %33

33:                                               ; preds = %_ZN4toku3wfg9find_nodeEm.exit
  %34 = getelementptr inbounds nuw i8, ptr %32, i64 8
  %35 = call noundef i32 @_ZNK4toku9txnid_set4sizeEv(ptr noundef nonnull align 8 dereferenceable(24) %34)
  %.not16 = icmp eq i32 %35, 0
  br i1 %.not16, label %.loopexit, label %.lr.ph

.lr.ph:                                           ; preds = %33, %.lr.ph
  %.015 = phi i32 [ %38, %.lr.ph ], [ 0, %33 ]
  %36 = call noundef i64 @_ZNK4toku9txnid_set3getEj(ptr noundef nonnull align 8 dereferenceable(24) %34, i32 noundef %.015)
  %37 = call noundef i32 %2(i64 noundef %1, i64 noundef %36, ptr noundef %3)
  %38 = add nuw i32 %.015, 1
  %39 = icmp ult i32 %38, %35
  %40 = icmp eq i32 %37, 0
  %41 = and i1 %40, %39
  br i1 %41, label %.lr.ph, label %.loopexit, !llvm.loop !38

.loopexit:                                        ; preds = %.lr.ph, %33, %_ZN4toku3wfg9find_nodeEm.exit.thread, %_ZN4toku3wfg9find_nodeEm.exit
  ret void
}